target datalayout = "e-m:e-p270:32:32-p271:32:32-p272:64:64-i64:64-i128:128-f80:128-n8:16:32:64-S128"
target triple = "x86_64-pc-linux-gnu"

%struct.dictType = type { ptr, ptr, ptr, ptr, ptr, ptr, ptr, ptr, ptr, ptr, ptr, i8, ptr, ptr, ptr }
%struct.dict = type { ptr, [2 x ptr], [2 x i64], i64, i16, [2 x i8], i16, [0 x ptr] }

@.str.1 = private unnamed_addr constant [7 x i8] c"dict.c\00", align 1
@.str.4 = private unnamed_addr constant [15 x i8] c"position!=NULL\00", align 1

; Function Attrs: nounwind uwtable
define internal void @_dictExpandIfNeeded(ptr noundef %0) #0 {
  %2 = alloca ptr, align 8
  store ptr %0, ptr %2, align 8, !tbaa !18
  %3 = load ptr, ptr %2, align 8, !tbaa !18
  %4 = getelementptr inbounds nuw %struct.dict, ptr %3, i32 0, i32 6
  %5 = load i16, ptr %4, align 4, !tbaa !20
  %6 = sext i16 %5 to i32
  %7 = icmp sgt i32 %6, 0
  br i1 %7, label %8, label %9

8:                                                ; preds = %1
  br label %12

9:                                                ; preds = %1
  %10 = load ptr, ptr %2, align 8, !tbaa !18
  %11 = call i32 @dictExpandIfNeeded(ptr noundef %10)
  br label %12

12:                                               ; preds = %9, %8
  ret void
}

; Function Attrs: nounwind uwtable
define internal void @_dictRehashStepIfNeeded(ptr noundef %0, i64 noundef %1) #0 {
  %3 = alloca ptr, align 8
  %4 = alloca i64, align 8
  store ptr %0, ptr %3, align 8, !tbaa !18
  store i64 %1, ptr %4, align 8, !tbaa !11
  %5 = load ptr, ptr %3, align 8, !tbaa !18
  %6 = getelementptr inbounds nuw %struct.dict, ptr %5, i32 0, i32 3
  %7 = load i64, ptr %6, align 8, !tbaa !11
  %8 = icmp ne i64 %7, -1
  br i1 %8, label %9, label %16

9:                                                ; preds = %2
  %10 = load ptr, ptr %3, align 8, !tbaa !18
  %11 = getelementptr inbounds nuw %struct.dict, ptr %10, i32 0, i32 4
  %12 = load i16, ptr %11, align 8
  %13 = and i16 %12, 32767
  %14 = zext i16 %13 to i32
  %15 = icmp ne i32 %14, 0
  br i1 %15, label %16, label %17

16:                                               ; preds = %9, %2
  br label %39

17:                                               ; preds = %9
  %18 = load i64, ptr %4, align 8, !tbaa !11
  %19 = load ptr, ptr %3, align 8, !tbaa !18
  %20 = getelementptr inbounds nuw %struct.dict, ptr %19, i32 0, i32 3
  %21 = load i64, ptr %20, align 8, !tbaa !11
  %22 = icmp sge i64 %18, %21
  br i1 %22, label %23, label %36

23:                                               ; preds = %17
  %24 = load ptr, ptr %3, align 8, !tbaa !18
  %25 = getelementptr inbounds nuw %struct.dict, ptr %24, i32 0, i32 1
  %26 = getelementptr inbounds [2 x ptr], ptr %25, i64 0, i64 0
  %27 = load ptr, ptr %26, align 8, !tbaa !30
  %28 = load i64, ptr %4, align 8, !tbaa !11
  %29 = getelementptr inbounds nuw ptr, ptr %27, i64 %28
  %30 = load ptr, ptr %29, align 8, !tbaa !36
  %31 = icmp ne ptr %30, null
  br i1 %31, label %32, label %36

32:                                               ; preds = %23
  %33 = load ptr, ptr %3, align 8, !tbaa !18
  %34 = load i64, ptr %4, align 8, !tbaa !11
  %35 = call i32 @_dictBucketRehash(ptr noundef %33, i64 noundef %34)
  br label %39

36:                                               ; preds = %23, %17
  %37 = load ptr, ptr %3, align 8, !tbaa !18
  %38 = call i32 @dictRehash(ptr noundef %37, i32 noundef 1)
  br label %39

39:                                               ; preds = %16, %36, %32
  ret void
}

; Function Attrs: nounwind uwtable
define dso_local ptr @dictAddNonExistsByHash(ptr noundef %0, ptr noundef %1, i64 noundef %2) #0 {
  %4 = alloca ptr, align 8
  %5 = alloca ptr, align 8
  %6 = alloca i64, align 8
  %7 = alloca i64, align 8
  %8 = alloca i64, align 8
  %9 = alloca ptr, align 8
  store ptr %0, ptr %4, align 8, !tbaa !18
  store ptr %1, ptr %5, align 8, !tbaa !10
  store i64 %2, ptr %6, align 8, !tbaa !11
  call void @llvm.lifetime.start.p0(i64 8, ptr %7) #14
  call void @llvm.lifetime.start.p0(i64 8, ptr %8) #14
  %10 = load i64, ptr %6, align 8, !tbaa !11
  %11 = load ptr, ptr %4, align 8, !tbaa !18
  %12 = getelementptr inbounds nuw %struct.dict, ptr %11, i32 0, i32 5
  %13 = getelementptr inbounds [2 x i8], ptr %12, i64 0, i64 0
  %14 = load i8, ptr %13, align 2, !tbaa !25
  %15 = sext i8 %14 to i32
  %16 = icmp eq i32 %15, -1
  br i1 %16, label %17, label %18

17:                                               ; preds = %3
  br label %37

18:                                               ; preds = %3
  %19 = load ptr, ptr %4, align 8, !tbaa !18
  %20 = getelementptr inbounds nuw %struct.dict, ptr %19, i32 0, i32 5
  %21 = getelementptr inbounds [2 x i8], ptr %20, i64 0, i64 0
  %22 = load i8, ptr %21, align 2, !tbaa !25
  %23 = sext i8 %22 to i32
  %24 = icmp eq i32 %23, -1
  br i1 %24, label %25, label %26

25:                                               ; preds = %18
  br label %34

26:                                               ; preds = %18
  %27 = load ptr, ptr %4, align 8, !tbaa !18
  %28 = getelementptr inbounds nuw %struct.dict, ptr %27, i32 0, i32 5
  %29 = getelementptr inbounds [2 x i8], ptr %28, i64 0, i64 0
  %30 = load i8, ptr %29, align 2, !tbaa !25
  %31 = sext i8 %30 to i32
  %32 = zext i32 %31 to i64
  %33 = shl i64 1, %32
  br label %34

34:                                               ; preds = %26, %25
  %35 = phi i64 [ 0, %25 ], [ %33, %26 ]
  %36 = sub i64 %35, 1
  br label %37

37:                                               ; preds = %34, %17
  %38 = phi i64 [ 0, %17 ], [ %36, %34 ]
  %39 = and i64 %10, %38
  store i64 %39, ptr %7, align 8, !tbaa !11
  %40 = load ptr, ptr %4, align 8, !tbaa !18
  %41 = load i64, ptr %7, align 8, !tbaa !11
  call void @_dictRehashStepIfNeeded(ptr noundef %40, i64 noundef %41)
  %42 = load ptr, ptr %4, align 8, !tbaa !18
  call void @_dictExpandIfNeeded(ptr noundef %42)
  %43 = load ptr, ptr %4, align 8, !tbaa !18
  %44 = getelementptr inbounds nuw %struct.dict, ptr %43, i32 0, i32 3
  %45 = load i64, ptr %44, align 8, !tbaa !11
  %46 = icmp ne i64 %45, -1
  %47 = select i1 %46, i32 1, i32 0
  %48 = sext i32 %47 to i64
  store i64 %48, ptr %8, align 8, !tbaa !11
  %49 = load i64, ptr %6, align 8, !tbaa !11
  %50 = load ptr, ptr %4, align 8, !tbaa !18
  %51 = getelementptr inbounds nuw %struct.dict, ptr %50, i32 0, i32 5
  %52 = load i64, ptr %8, align 8, !tbaa !11
  %53 = getelementptr inbounds nuw [2 x i8], ptr %51, i64 0, i64 %52
  %54 = load i8, ptr %53, align 1, !tbaa !25
  %55 = sext i8 %54 to i32
  %56 = icmp eq i32 %55, -1
  br i1 %56, label %57, label %58

57:                                               ; preds = %37
  br label %79

58:                                               ; preds = %37
  %59 = load ptr, ptr %4, align 8, !tbaa !18
  %60 = getelementptr inbounds nuw %struct.dict, ptr %59, i32 0, i32 5
  %61 = load i64, ptr %8, align 8, !tbaa !11
  %62 = getelementptr inbounds nuw [2 x i8], ptr %60, i64 0, i64 %61
  %63 = load i8, ptr %62, align 1, !tbaa !25
  %64 = sext i8 %63 to i32
  %65 = icmp eq i32 %64, -1
  br i1 %65, label %66, label %67

66:                                               ; preds = %58
  br label %76

67:                                               ; preds = %58
  %68 = load ptr, ptr %4, align 8, !tbaa !18
  %69 = getelementptr inbounds nuw %struct.dict, ptr %68, i32 0, i32 5
  %70 = load i64, ptr %8, align 8, !tbaa !11
  %71 = getelementptr inbounds nuw [2 x i8], ptr %69, i64 0, i64 %70
  %72 = load i8, ptr %71, align 1, !tbaa !25
  %73 = sext i8 %72 to i32
  %74 = zext i32 %73 to i64
  %75 = shl i64 1, %74
  br label %76

76:                                               ; preds = %67, %66
  %77 = phi i64 [ 0, %66 ], [ %75, %67 ]
  %78 = sub i64 %77, 1
  br label %79

79:                                               ; preds = %76, %57
  %80 = phi i64 [ 0, %57 ], [ %78, %76 ]
  %81 = and i64 %49, %80
  store i64 %81, ptr %7, align 8, !tbaa !11
  call void @llvm.lifetime.start.p0(i64 8, ptr %9) #14
  %82 = load ptr, ptr %4, align 8, !tbaa !18
  %83 = getelementptr inbounds nuw %struct.dict, ptr %82, i32 0, i32 1
  %84 = load i64, ptr %8, align 8, !tbaa !11
  %85 = getelementptr inbounds nuw [2 x ptr], ptr %83, i64 0, i64 %84
  %86 = load ptr, ptr %85, align 8, !tbaa !30
  %87 = load i64, ptr %7, align 8, !tbaa !11
  %88 = getelementptr inbounds nuw ptr, ptr %86, i64 %87
  store ptr %88, ptr %9, align 8, !tbaa !10
  %89 = load ptr, ptr %9, align 8, !tbaa !10
  %90 = icmp ne ptr %89, null
  %91 = xor i1 %90, true
  %92 = xor i1 %91, true
  %93 = zext i1 %92 to i32
  %94 = sext i32 %93 to i64
  %95 = call i64 @llvm.expect.i64(i64 %94, i64 1)
  %96 = icmp ne i64 %95, 0
  br i1 %96, label %97, label %98

97:                                               ; preds = %79
  br label %100

98:                                               ; preds = %79
  call void @_serverAssert(ptr noundef @.str.4, ptr noundef @.str.1, i32 noundef 544)
  call void @abort() #17
  unreachable

99:                                               ; No predecessors!
  br label %100

100:                                              ; preds = %99, %97
  %101 = load ptr, ptr %4, align 8, !tbaa !18
  %102 = getelementptr inbounds nuw %struct.dict, ptr %101, i32 0, i32 0
  %103 = load ptr, ptr %102, align 8, !tbaa !13
  %104 = getelementptr inbounds nuw %struct.dictType, ptr %103, i32 0, i32 1
  %105 = load ptr, ptr %104, align 8, !tbaa !47
  %106 = icmp ne ptr %105, null
  br i1 %106, label %107, label %116

107:                                              ; preds = %100
  %108 = load ptr, ptr %4, align 8, !tbaa !18
  %109 = getelementptr inbounds nuw %struct.dict, ptr %108, i32 0, i32 0
  %110 = load ptr, ptr %109, align 8, !tbaa !13
  %111 = getelementptr inbounds nuw %struct.dictType, ptr %110, i32 0, i32 1
  %112 = load ptr, ptr %111, align 8, !tbaa !47
  %113 = load ptr, ptr %4, align 8, !tbaa !18
  %114 = load ptr, ptr %5, align 8, !tbaa !10
  %115 = call ptr %112(ptr noundef %113, ptr noundef %114)
  store ptr %115, ptr %5, align 8, !tbaa !10
  br label %116

116:                                              ; preds = %107, %100
  %117 = load ptr, ptr %4, align 8, !tbaa !18
  %118 = load ptr, ptr %5, align 8, !tbaa !10
  %119 = load ptr, ptr %9, align 8, !tbaa !10
  %120 = call ptr @dictInsertAtPosition(ptr noundef %117, ptr noundef %118, ptr noundef %119)
  call void @llvm.lifetime.end.p0(i64 8, ptr %9) #14
  call void @llvm.lifetime.end.p0(i64 8, ptr %8) #14
  call void @llvm.lifetime.end.p0(i64 8, ptr %7) #14
  ret ptr %120
}