; Function Attrs: nounwind uwtable
define dso_local ptr @dictAddNonExistsByHash(ptr noundef %0, ptr noundef %1, i64 noundef %2) local_unnamed_addr #3 {
  %4 = getelementptr inbounds nuw i8, ptr %0, i64 50
  %5 = load i8, ptr %4, align 2, !tbaa !13
  %6 = sext i8 %5 to i64
  %7 = icmp eq i8 %5, -1
  %8 = and i64 %6, 4294967295
  %notmask = shl nsw i64 -1, %8
  %9 = xor i64 %notmask, -1
  %10 = select i1 %7, i64 0, i64 %9
  %11 = and i64 %10, %2
  %12 = getelementptr inbounds nuw i8, ptr %0, i64 40
  %13 = load i64, ptr %12, align 8, !tbaa !14
  %.not.i = icmp eq i64 %13, -1
  br i1 %.not.i, label %_dictRehashStepIfNeeded.exit, label %14

14:                                               ; preds = %3
  %15 = getelementptr inbounds nuw i8, ptr %0, i64 48
  %16 = load i16, ptr %15, align 8
  %17 = and i16 %16, 32767
  %.not9.i = icmp eq i16 %17, 0
  br i1 %.not9.i, label %18, label %_dictRehashStepIfNeeded.exit

18:                                               ; preds = %14
  %.not10.i = icmp slt i64 %11, %13
  br i1 %.not10.i, label %26, label %19

19:                                               ; preds = %18
  %20 = getelementptr inbounds nuw i8, ptr %0, i64 8
  %21 = load ptr, ptr %20, align 8, !tbaa !11
  %22 = getelementptr inbounds nuw ptr, ptr %21, i64 %11
  %23 = load ptr, ptr %22, align 8, !tbaa !31
  %.not11.i = icmp eq ptr %23, null
  br i1 %.not11.i, label %26, label %24

24:                                               ; preds = %19
  %25 = tail call i32 @_dictBucketRehash(ptr noundef nonnull %0, i64 noundef %11)
  br label %_dictRehashStepIfNeeded.exit

26:                                               ; preds = %19, %18
  %27 = tail call i32 @dictRehash(ptr noundef nonnull %0, i32 noundef 1)
  br label %_dictRehashStepIfNeeded.exit

_dictRehashStepIfNeeded.exit:                     ; preds = %3, %14, %24, %26
  %28 = getelementptr inbounds nuw i8, ptr %0, i64 52
  %29 = load i16, ptr %28, align 4, !tbaa !18
  %30 = icmp sgt i16 %29, 0
  br i1 %30, label %_dictExpandIfNeeded.exit, label %31

31:                                               ; preds = %_dictRehashStepIfNeeded.exit
  %32 = tail call i32 @dictExpandIfNeeded(ptr noundef nonnull %0)
  br label %_dictExpandIfNeeded.exit

_dictExpandIfNeeded.exit:                         ; preds = %_dictRehashStepIfNeeded.exit, %31
  %33 = load i64, ptr %12, align 8, !tbaa !14
  %.not = icmp ne i64 %33, -1
  %34 = zext i1 %.not to i64
  %35 = getelementptr inbounds nuw [2 x i8], ptr %4, i64 0, i64 %34
  %36 = load i8, ptr %35, align 1, !tbaa !13
  %37 = getelementptr inbounds nuw i8, ptr %0, i64 8
  %38 = getelementptr inbounds nuw [2 x ptr], ptr %37, i64 0, i64 %34
  %39 = load ptr, ptr %38, align 8, !tbaa !11
  %.not30 = icmp eq ptr %39, null
  br i1 %.not30, label %40, label %41, !prof !43

40:                                               ; preds = %_dictExpandIfNeeded.exit
  tail call void @_serverAssert(ptr noundef nonnull @.str.4, ptr noundef nonnull @.str.1, i32 noundef 544) #25
  tail call void @abort() #27
  unreachable

41:                                               ; preds = %_dictExpandIfNeeded.exit
  %42 = load ptr, ptr %0, align 8, !tbaa !16
  %43 = getelementptr inbounds nuw i8, ptr %42, i64 8
  %44 = load ptr, ptr %43, align 8, !tbaa !49
  %.not31 = icmp eq ptr %44, null
  br i1 %.not31, label %47, label %45

45:                                               ; preds = %41
  %46 = tail call ptr %44(ptr noundef nonnull %0, ptr noundef %1) #25
  br label %47

47:                                               ; preds = %45, %41
  %.0 = phi ptr [ %46, %45 ], [ %1, %41 ]
  %48 = icmp eq i8 %36, -1
  %49 = sext i8 %36 to i64
  %50 = and i64 %49, 4294967295
  %notmask29 = shl nsw i64 -1, %50
  %51 = xor i64 %notmask29, -1
  %52 = select i1 %48, i64 0, i64 %51
  %53 = and i64 %52, %2
  %54 = getelementptr inbounds nuw ptr, ptr %39, i64 %53
  %55 = tail call ptr @dictInsertAtPosition(ptr noundef nonnull %0, ptr noundef %.0, ptr noundef nonnull %54)
  ret ptr %55
}